target datalayout = "e-m:e-p270:32:32-p271:32:32-p272:64:64-i64:64-i128:128-f80:128-n8:16:32:64-S128"
target triple = "x86_64-unknown-linux-gnu"

%"class.std::_Sp_counted_base" = type { ptr, i32, i32 }
%"class.std::_Sp_counted_ptr_inplace.574" = type { %"class.std::_Sp_counted_base", %"class.std::_Sp_counted_ptr_inplace<rocksdb::(anonymous namespace)::BackupEngineImpl::FileInfo, std::allocator<void>, __gnu_cxx::_S_atomic>::_Impl" }
%"class.std::_Sp_counted_ptr_inplace<rocksdb::(anonymous namespace)::BackupEngineImpl::FileInfo, std::allocator<void>, __gnu_cxx::_S_atomic>::_Impl" = type { %"struct.__gnu_cxx::__aligned_buffer.575" }
%"struct.__gnu_cxx::__aligned_buffer.575" = type { %"union.std::aligned_storage<152, 8>::type" }
%"union.std::aligned_storage<152, 8>::type" = type { [152 x i8] }

@_ZZNSt19_Sp_make_shared_tag5_S_tiEvE5__tag = linkonce_odr constant [16 x i8] zeroinitializer, comdat, align 8

; Function Attrs: mustprogress nounwind uwtable
define internal noundef ptr @_ZN9__gnu_cxx16__aligned_bufferIN7rocksdb12_GLOBAL__N_116BackupEngineImpl8FileInfoEE7_M_addrEv(ptr noundef nonnull align 8 dereferenceable(152) %this) #1 align 2 {
entry:
  %this.addr = alloca ptr, align 8
  store ptr %this, ptr %this.addr, align 8
  %this1 = load ptr, ptr %this.addr, align 8
  %_M_storage = getelementptr inbounds %"struct.__gnu_cxx::__aligned_buffer.575", ptr %this1, i32 0, i32 0
  ret ptr %_M_storage
}

; Function Attrs: mustprogress nounwind uwtable
define internal noundef ptr @_ZN9__gnu_cxx16__aligned_bufferIN7rocksdb12_GLOBAL__N_116BackupEngineImpl8FileInfoEE6_M_ptrEv(ptr noundef nonnull align 8 dereferenceable(152) %this) #1 align 2 {
entry:
  %this.addr = alloca ptr, align 8
  store ptr %this, ptr %this.addr, align 8
  %this1 = load ptr, ptr %this.addr, align 8
  %call = call noundef ptr @_ZN9__gnu_cxx16__aligned_bufferIN7rocksdb12_GLOBAL__N_116BackupEngineImpl8FileInfoEE7_M_addrEv(ptr noundef nonnull align 8 dereferenceable(152) %this1) #3
  ret ptr %call
}

; Function Attrs: mustprogress nounwind uwtable
define linkonce_odr noundef nonnull align 8 dereferenceable(16) ptr @_ZNSt19_Sp_make_shared_tag5_S_tiEv() #1 comdat align 2 {
entry:
  ret ptr @_ZZNSt19_Sp_make_shared_tag5_S_tiEvE5__tag
}

; Function Attrs: mustprogress nounwind uwtable
define internal noundef ptr @_ZNSt23_Sp_counted_ptr_inplaceIN7rocksdb12_GLOBAL__N_116BackupEngineImpl8FileInfoESaIvELN9__gnu_cxx12_Lock_policyE2EE6_M_ptrEv(ptr noundef nonnull align 8 dereferenceable(168) %this) #1 align 2 {
entry:
  %this.addr = alloca ptr, align 8
  store ptr %this, ptr %this.addr, align 8
  %this1 = load ptr, ptr %this.addr, align 8
  %_M_impl = getelementptr inbounds %"class.std::_Sp_counted_ptr_inplace.574", ptr %this1, i32 0, i32 1
  %_M_storage = getelementptr inbounds %"class.std::_Sp_counted_ptr_inplace<rocksdb::(anonymous namespace)::BackupEngineImpl::FileInfo, std::allocator<void>, __gnu_cxx::_S_atomic>::_Impl", ptr %_M_impl, i32 0, i32 0
  %call = call noundef ptr @_ZN9__gnu_cxx16__aligned_bufferIN7rocksdb12_GLOBAL__N_116BackupEngineImpl8FileInfoEE6_M_ptrEv(ptr noundef nonnull align 8 dereferenceable(152) %_M_storage) #3
  ret ptr %call
}

; Function Attrs: mustprogress nounwind uwtable
define internal noundef ptr @_ZNSt23_Sp_counted_ptr_inplaceIN7rocksdb12_GLOBAL__N_116BackupEngineImpl8FileInfoESaIvELN9__gnu_cxx12_Lock_policyE2EE14_M_get_deleterERKSt9type_info(ptr noundef nonnull align 8 dereferenceable(168) %this, ptr noundef nonnull align 8 dereferenceable(16) %__ti) unnamed_addr #1 align 2 {
entry:
  %retval = alloca ptr, align 8
  %this.addr = alloca ptr, align 8
  %__ti.addr = alloca ptr, align 8
  %__ptr = alloca ptr, align 8
  store ptr %this, ptr %this.addr, align 8
  store ptr %__ti, ptr %__ti.addr, align 8
  %this1 = load ptr, ptr %this.addr, align 8
  %call = call noundef ptr @_ZNSt23_Sp_counted_ptr_inplaceIN7rocksdb12_GLOBAL__N_116BackupEngineImpl8FileInfoESaIvELN9__gnu_cxx12_Lock_policyE2EE6_M_ptrEv(ptr noundef nonnull align 8 dereferenceable(168) %this1) #3
  store ptr %call, ptr %__ptr, align 8
  %0 = load ptr, ptr %__ti.addr, align 8
  %call2 = call noundef nonnull align 8 dereferenceable(16) ptr @_ZNSt19_Sp_make_shared_tag5_S_tiEv() #3
  %cmp = icmp eq ptr %0, %call2
  br i1 %cmp, label %if.then, label %lor.lhs.false

lor.lhs.false:                                    ; preds = %entry
  %1 = load ptr, ptr %__ti.addr, align 8
  %call3 = call noundef zeroext i1 @_ZNSt19_Sp_make_shared_tag5_S_eqERKSt9type_info(ptr noundef nonnull align 8 dereferenceable(16) %1) #3
  br i1 %call3, label %if.then, label %if.end

if.then:                                          ; preds = %lor.lhs.false, %entry
  %2 = load ptr, ptr %__ptr, align 8
  store ptr %2, ptr %retval, align 8
  br label %return

if.end:                                           ; preds = %lor.lhs.false
  store ptr null, ptr %retval, align 8
  br label %return

return:                                           ; preds = %if.end, %if.then
  %3 = load ptr, ptr %retval, align 8
  ret ptr %3
}